target datalayout = "e-m:e-p270:32:32-p271:32:32-p272:64:64-i64:64-i128:128-f80:128-n8:16:32:64-S128"
target triple = "x86_64-pc-linux-gnu"

%struct.decoder_data_st = type { ptr, i32, ptr, ptr, ptr, i8 }

; Function Attrs: nounwind uwtable
define internal ptr @get_decoder_store(ptr noundef %0) #0 {
  %2 = alloca ptr, align 8
  store ptr %0, ptr %2, align 8, !tbaa !29
  %3 = load ptr, ptr %2, align 8, !tbaa !29
  %4 = call ptr @ossl_lib_ctx_get_data(ptr noundef %3, i32 noundef 11)
  ret ptr %4
}

; Function Attrs: nounwind uwtable
define internal i32 @put_decoder_in_store(ptr noundef %0, ptr noundef %1, ptr noundef %2, ptr noundef %3, ptr noundef %4, ptr noundef %5) #0 {
  %7 = alloca i32, align 4
  %8 = alloca ptr, align 8
  %9 = alloca ptr, align 8
  %10 = alloca ptr, align 8
  %11 = alloca ptr, align 8
  %12 = alloca ptr, align 8
  %13 = alloca ptr, align 8
  %14 = alloca ptr, align 8
  %15 = alloca ptr, align 8
  %16 = alloca i32, align 4
  %17 = alloca i64, align 8
  %18 = alloca ptr, align 8
  %19 = alloca i32, align 4
  store ptr %0, ptr %8, align 8, !tbaa !10
  store ptr %1, ptr %9, align 8, !tbaa !10
  store ptr %2, ptr %10, align 8, !tbaa !24
  store ptr %3, ptr %11, align 8, !tbaa !48
  store ptr %4, ptr %12, align 8, !tbaa !48
  store ptr %5, ptr %13, align 8, !tbaa !10
  call void @llvm.lifetime.start.p0(i64 8, ptr %14) #7
  %20 = load ptr, ptr %13, align 8, !tbaa !10
  store ptr %20, ptr %14, align 8, !tbaa !53
  call void @llvm.lifetime.start.p0(i64 8, ptr %15) #7
  call void @llvm.lifetime.start.p0(i64 4, ptr %16) #7
  call void @llvm.lifetime.start.p0(i64 8, ptr %17) #7
  store i64 0, ptr %17, align 8, !tbaa !76
  %21 = load ptr, ptr %11, align 8, !tbaa !48
  %22 = icmp ne ptr %21, null
  br i1 %22, label %23, label %39

23:                                               ; preds = %6
  call void @llvm.lifetime.start.p0(i64 8, ptr %18) #7
  %24 = load ptr, ptr %11, align 8, !tbaa !48
  %25 = call ptr @strchr(ptr noundef %24, i32 noundef 58) #8
  store ptr %25, ptr %18, align 8, !tbaa !48
  %26 = load ptr, ptr %18, align 8, !tbaa !48
  %27 = icmp eq ptr %26, null
  br i1 %27, label %28, label %31

28:                                               ; preds = %23
  %29 = load ptr, ptr %11, align 8, !tbaa !48
  %30 = call i64 @strlen(ptr noundef %29) #8
  br label %37

31:                                               ; preds = %23
  %32 = load ptr, ptr %18, align 8, !tbaa !48
  %33 = load ptr, ptr %11, align 8, !tbaa !48
  %34 = ptrtoint ptr %32 to i64
  %35 = ptrtoint ptr %33 to i64
  %36 = sub i64 %34, %35
  br label %37

37:                                               ; preds = %31, %28
  %38 = phi i64 [ %30, %28 ], [ %36, %31 ]
  store i64 %38, ptr %17, align 8, !tbaa !76
  call void @llvm.lifetime.end.p0(i64 8, ptr %18) #7
  br label %39

39:                                               ; preds = %37, %6
  %40 = load ptr, ptr %14, align 8, !tbaa !53
  %41 = getelementptr inbounds nuw %struct.decoder_data_st, ptr %40, i32 0, i32 0
  %42 = load ptr, ptr %41, align 8, !tbaa !49
  %43 = call ptr @ossl_namemap_stored(ptr noundef %42)
  store ptr %43, ptr %15, align 8, !tbaa !56
  %44 = icmp eq ptr %43, null
  br i1 %44, label %51, label %45

45:                                               ; preds = %39
  %46 = load ptr, ptr %15, align 8, !tbaa !56
  %47 = load ptr, ptr %11, align 8, !tbaa !48
  %48 = load i64, ptr %17, align 8, !tbaa !76
  %49 = call i32 @ossl_namemap_name2num_n(ptr noundef %46, ptr noundef %47, i64 noundef %48)
  store i32 %49, ptr %16, align 4, !tbaa !8
  %50 = icmp eq i32 %49, 0
  br i1 %50, label %51, label %52

51:                                               ; preds = %45, %39
  store i32 0, ptr %7, align 4
  store i32 1, ptr %19, align 4
  br label %69

52:                                               ; preds = %45
  %53 = load ptr, ptr %8, align 8, !tbaa !10
  %54 = icmp eq ptr %53, null
  br i1 %54, label %55, label %62

55:                                               ; preds = %52
  %56 = load ptr, ptr %14, align 8, !tbaa !53
  %57 = getelementptr inbounds nuw %struct.decoder_data_st, ptr %56, i32 0, i32 0
  %58 = load ptr, ptr %57, align 8, !tbaa !49
  %59 = call ptr @get_decoder_store(ptr noundef %58)
  store ptr %59, ptr %8, align 8, !tbaa !10
  %60 = icmp eq ptr %59, null
  br i1 %60, label %61, label %62

61:                                               ; preds = %55
  store i32 0, ptr %7, align 4
  store i32 1, ptr %19, align 4
  br label %69

62:                                               ; preds = %55, %52
  %63 = load ptr, ptr %8, align 8, !tbaa !10
  %64 = load ptr, ptr %10, align 8, !tbaa !24
  %65 = load i32, ptr %16, align 4, !tbaa !8
  %66 = load ptr, ptr %12, align 8, !tbaa !48
  %67 = load ptr, ptr %9, align 8, !tbaa !10
  %68 = call i32 @ossl_method_store_add(ptr noundef %63, ptr noundef %64, i32 noundef %65, ptr noundef %66, ptr noundef %67, ptr noundef @ossl_decoder_up_ref, ptr noundef @ossl_decoder_free)
  store i32 %68, ptr %7, align 4
  store i32 1, ptr %19, align 4
  br label %69

69:                                               ; preds = %62, %61, %51
  call void @llvm.lifetime.end.p0(i64 8, ptr %17) #7
  call void @llvm.lifetime.end.p0(i64 4, ptr %16) #7
  call void @llvm.lifetime.end.p0(i64 8, ptr %15) #7
  call void @llvm.lifetime.end.p0(i64 8, ptr %14) #7
  %70 = load i32, ptr %7, align 4
  ret i32 %70
}