; Function Attrs: nounwind uwtable
define internal i32 @put_decoder_in_store(ptr noundef %0, ptr noundef %1, ptr noundef %2, ptr noundef %3, ptr noundef %4, ptr noundef readonly captures(none) %5) #2 {
  %.not = icmp eq ptr %3, null
  br i1 %.not, label %16, label %7

7:                                                ; preds = %6
  %8 = tail call ptr @strchr(ptr noundef nonnull dereferenceable(1) %3, i32 noundef 58) #9
  %9 = icmp eq ptr %8, null
  br i1 %9, label %10, label %12

10:                                               ; preds = %7
  %11 = tail call i64 @strlen(ptr noundef nonnull dereferenceable(1) %3) #9
  br label %16

12:                                               ; preds = %7
  %13 = ptrtoint ptr %8 to i64
  %14 = ptrtoint ptr %3 to i64
  %15 = sub i64 %13, %14
  br label %16

16:                                               ; preds = %10, %12, %6
  %.018 = phi i64 [ 0, %6 ], [ %11, %10 ], [ %15, %12 ]
  %17 = load ptr, ptr %5, align 8, !tbaa !38
  %18 = tail call ptr @ossl_namemap_stored(ptr noundef %17) #8
  %19 = icmp eq ptr %18, null
  br i1 %19, label %31, label %20

20:                                               ; preds = %16
  %21 = tail call i32 @ossl_namemap_name2num_n(ptr noundef nonnull %18, ptr noundef %3, i64 noundef %.018) #8
  %22 = icmp eq i32 %21, 0
  br i1 %22, label %31, label %23

23:                                               ; preds = %20
  %24 = icmp eq ptr %0, null
  br i1 %24, label %25, label %29

25:                                               ; preds = %23
  %26 = load ptr, ptr %5, align 8, !tbaa !38
  %27 = tail call ptr @ossl_lib_ctx_get_data(ptr noundef %26, i32 noundef 11) #8
  %28 = icmp eq ptr %27, null
  br i1 %28, label %31, label %29

29:                                               ; preds = %25, %23
  %.019 = phi ptr [ %27, %25 ], [ %0, %23 ]
  %30 = tail call i32 @ossl_method_store_add(ptr noundef nonnull %.019, ptr noundef %2, i32 noundef %21, ptr noundef %4, ptr noundef %1, ptr noundef nonnull @ossl_decoder_up_ref, ptr noundef nonnull @ossl_decoder_free) #8
  br label %31

31:                                               ; preds = %25, %16, %20, %29
  %.0 = phi i32 [ %30, %29 ], [ 0, %20 ], [ 0, %16 ], [ 0, %25 ]
  ret i32 %.0
}